target datalayout = "e-m:e-p270:32:32-p271:32:32-p272:64:64-i64:64-i128:128-f80:128-n8:16:32:64-S128"
target triple = "x86_64-pc-linux-gnu"

%struct.nameData = type { [64 x i8] }
%struct.RelationData = type { %struct.RelFileLocator, ptr, i32, i32, i8, i8, i8, i8, i8, i32, i32, i32, i32, ptr, ptr, i32, %struct.LockInfoData, ptr, ptr, ptr, ptr, ptr, i8, ptr, ptr, ptr, ptr, ptr, ptr, i32, ptr, i8, ptr, ptr, i32, i8, i32, ptr, i8, ptr, ptr, ptr, ptr, ptr, ptr, ptr, i32, ptr, ptr, ptr, ptr, ptr, ptr, ptr, ptr, ptr, ptr, ptr, ptr, ptr, ptr, ptr, ptr, ptr, ptr, ptr, i32, i8, ptr }
%struct.RelFileLocator = type { i32, i32, i32 }
%struct.LockInfoData = type { %struct.LockRelId }
%struct.LockRelId = type { i32, i32 }
%struct.int2vector = type { i32, i32, i32, i32, i32, i32, [0 x i16] }
%struct.HeapTupleData = type { i32, %struct.ItemPointerData, i32, ptr }
%struct.ItemPointerData = type { %struct.BlockIdData, i16 }
%struct.BlockIdData = type { i16, i16 }
%struct.HeapTupleHeaderData = type { %union.anon, %struct.ItemPointerData, i16, i16, i8, [0 x i8] }
%union.anon = type { %struct.HeapTupleFields }
%struct.HeapTupleFields = type { i32, i32, %union.anon.0 }
%union.anon.0 = type { i32 }
%struct.ScanKeyData = type { i32, i16, i16, i32, i32, %struct.FmgrInfo, i64 }
%struct.FmgrInfo = type { ptr, i32, i16, i8, i8, i8, ptr, ptr, ptr }
%struct.FormData_pg_statistic_ext = type { i32, i32, %struct.nameData, i32, i32, %struct.int2vector }

@CacheMemoryContext = external global ptr, align 8
@CurrentMemoryContext = external global ptr, align 8

; Function Attrs: inlinehint nounwind uwtable
define internal ptr @MemoryContextSwitchTo(ptr noundef %0) #3 {
  %2 = alloca ptr, align 8
  %3 = alloca ptr, align 8
  store ptr %0, ptr %2, align 8
  call void @llvm.lifetime.start.p0(i64 8, ptr %3) #11
  %4 = load ptr, ptr @CurrentMemoryContext, align 8
  store ptr %4, ptr %3, align 8
  %5 = load ptr, ptr %2, align 8
  store ptr %5, ptr @CurrentMemoryContext, align 8
  %6 = load ptr, ptr %3, align 8
  call void @llvm.lifetime.end.p0(i64 8, ptr %3) #11
  ret ptr %6
}

; Function Attrs: inlinehint nounwind uwtable
define internal ptr @GETSTRUCT(ptr noundef %0) #3 {
  %2 = alloca ptr, align 8
  store ptr %0, ptr %2, align 8
  %3 = load ptr, ptr %2, align 8
  %4 = getelementptr inbounds nuw %struct.HeapTupleData, ptr %3, i32 0, i32 3
  %5 = load ptr, ptr %4, align 8
  %6 = load ptr, ptr %2, align 8
  %7 = getelementptr inbounds nuw %struct.HeapTupleData, ptr %6, i32 0, i32 3
  %8 = load ptr, ptr %7, align 8
  %9 = getelementptr inbounds nuw %struct.HeapTupleHeaderData, ptr %8, i32 0, i32 4
  %10 = load i8, ptr %9, align 2
  %11 = zext i8 %10 to i32
  %12 = sext i32 %11 to i64
  %13 = getelementptr inbounds i8, ptr %5, i64 %12
  ret ptr %13
}

; Function Attrs: inlinehint nounwind uwtable
define internal i64 @ObjectIdGetDatum(i32 noundef %0) #3 {
  %2 = alloca i32, align 4
  store i32 %0, ptr %2, align 4
  %3 = load i32, ptr %2, align 4
  %4 = zext i32 %3 to i64
  ret i64 %4
}

; Function Attrs: nounwind uwtable
define dso_local ptr @RelationGetStatExtList(ptr noundef %0) #0 {
  %2 = alloca ptr, align 8
  %3 = alloca ptr, align 8
  %4 = alloca ptr, align 8
  %5 = alloca ptr, align 8
  %6 = alloca %struct.ScanKeyData, align 8
  %7 = alloca ptr, align 8
  %8 = alloca ptr, align 8
  %9 = alloca ptr, align 8
  %10 = alloca ptr, align 8
  %11 = alloca i32, align 4
  %12 = alloca i32, align 4
  store ptr %0, ptr %3, align 8
  call void @llvm.lifetime.start.p0(i64 8, ptr %4) #11
  call void @llvm.lifetime.start.p0(i64 8, ptr %5) #11
  call void @llvm.lifetime.start.p0(i64 72, ptr %6) #11
  call void @llvm.lifetime.start.p0(i64 8, ptr %7) #11
  call void @llvm.lifetime.start.p0(i64 8, ptr %8) #11
  call void @llvm.lifetime.start.p0(i64 8, ptr %9) #11
  call void @llvm.lifetime.start.p0(i64 8, ptr %10) #11
  %13 = load ptr, ptr %3, align 8
  %14 = getelementptr inbounds nuw %struct.RelationData, ptr %13, i32 0, i32 8
  %15 = load i8, ptr %14, align 4, !range !4, !noundef !5
  %16 = trunc i8 %15 to i1
  %17 = zext i1 %16 to i32
  %18 = icmp ne i32 %17, 0
  br i1 %18, label %19, label %24

19:                                               ; preds = %1
  %20 = load ptr, ptr %3, align 8
  %21 = getelementptr inbounds nuw %struct.RelationData, ptr %20, i32 0, i32 37
  %22 = load ptr, ptr %21, align 8
  %23 = call ptr @list_copy(ptr noundef %22)
  store ptr %23, ptr %2, align 8
  store i32 1, ptr %11, align 4
  br label %63

24:                                               ; preds = %1
  store ptr null, ptr %8, align 8
  %25 = load ptr, ptr %3, align 8
  %26 = getelementptr inbounds nuw %struct.RelationData, ptr %25, i32 0, i32 15
  %27 = load i32, ptr %26, align 8
  %28 = call i64 @ObjectIdGetDatum(i32 noundef %27)
  call void @ScanKeyInit(ptr noundef %6, i16 noundef signext 2, i16 noundef zeroext 3, i32 noundef 184, i64 noundef %28)
  %29 = call ptr @table_open(i32 noundef 3381, i32 noundef 1)
  store ptr %29, ptr %4, align 8
  %30 = load ptr, ptr %4, align 8
  %31 = call ptr @systable_beginscan(ptr noundef %30, i32 noundef 3379, i1 noundef zeroext true, ptr noundef null, i32 noundef 1, ptr noundef %6)
  store ptr %31, ptr %5, align 8
  br label %32

32:                                               ; preds = %36, %24
  %33 = load ptr, ptr %5, align 8
  %34 = call ptr @systable_getnext(ptr noundef %33)
  store ptr %34, ptr %7, align 8
  %35 = icmp ne ptr %34, null
  br i1 %35, label %36, label %44

36:                                               ; preds = %32
  call void @llvm.lifetime.start.p0(i64 4, ptr %12) #11
  %37 = load ptr, ptr %7, align 8
  %38 = call ptr @GETSTRUCT(ptr noundef %37)
  %39 = getelementptr inbounds nuw %struct.FormData_pg_statistic_ext, ptr %38, i32 0, i32 0
  %40 = load i32, ptr %39, align 4
  store i32 %40, ptr %12, align 4
  %41 = load ptr, ptr %8, align 8
  %42 = load i32, ptr %12, align 4
  %43 = call ptr @lappend_oid(ptr noundef %41, i32 noundef %42)
  store ptr %43, ptr %8, align 8
  call void @llvm.lifetime.end.p0(i64 4, ptr %12) #11
  br label %32, !llvm.loop !33

44:                                               ; preds = %32
  %45 = load ptr, ptr %5, align 8
  call void @systable_endscan(ptr noundef %45)
  %46 = load ptr, ptr %4, align 8
  call void @table_close(ptr noundef %46, i32 noundef 1)
  %47 = load ptr, ptr %8, align 8
  call void @list_sort(ptr noundef %47, ptr noundef @list_oid_cmp)
  %48 = load ptr, ptr @CacheMemoryContext, align 8
  %49 = call ptr @MemoryContextSwitchTo(ptr noundef %48)
  store ptr %49, ptr %10, align 8
  %50 = load ptr, ptr %3, align 8
  %51 = getelementptr inbounds nuw %struct.RelationData, ptr %50, i32 0, i32 37
  %52 = load ptr, ptr %51, align 8
  store ptr %52, ptr %9, align 8
  %53 = load ptr, ptr %8, align 8
  %54 = call ptr @list_copy(ptr noundef %53)
  %55 = load ptr, ptr %3, align 8
  %56 = getelementptr inbounds nuw %struct.RelationData, ptr %55, i32 0, i32 37
  store ptr %54, ptr %56, align 8
  %57 = load ptr, ptr %3, align 8
  %58 = getelementptr inbounds nuw %struct.RelationData, ptr %57, i32 0, i32 8
  store i8 1, ptr %58, align 4
  %59 = load ptr, ptr %10, align 8
  %60 = call ptr @MemoryContextSwitchTo(ptr noundef %59)
  %61 = load ptr, ptr %9, align 8
  call void @list_free(ptr noundef %61)
  %62 = load ptr, ptr %8, align 8
  store ptr %62, ptr %2, align 8
  store i32 1, ptr %11, align 4
  br label %63

63:                                               ; preds = %44, %19
  call void @llvm.lifetime.end.p0(i64 8, ptr %10) #11
  call void @llvm.lifetime.end.p0(i64 8, ptr %9) #11
  call void @llvm.lifetime.end.p0(i64 8, ptr %8) #11
  call void @llvm.lifetime.end.p0(i64 8, ptr %7) #11
  call void @llvm.lifetime.end.p0(i64 72, ptr %6) #11
  call void @llvm.lifetime.end.p0(i64 8, ptr %5) #11
  call void @llvm.lifetime.end.p0(i64 8, ptr %4) #11
  %64 = load ptr, ptr %2, align 8
  ret ptr %64
}