; Function Attrs: nounwind uwtable
define dso_local ptr @RelationGetStatExtList(ptr noundef captures(none) %0) local_unnamed_addr #0 {
  %2 = alloca %struct.ScanKeyData, align 8
  call void @llvm.lifetime.start.p0(i64 72, ptr nonnull %2) #13
  %3 = getelementptr inbounds nuw i8, ptr %0, i64 36
  %4 = load i8, ptr %3, align 4, !range !6, !noundef !7
  %5 = trunc nuw i8 %4 to i1
  br i1 %5, label %6, label %10

6:                                                ; preds = %1
  %7 = getelementptr inbounds nuw i8, ptr %0, i64 240
  %8 = load ptr, ptr %7, align 8
  %9 = tail call ptr @list_copy(ptr noundef %8) #13
  br label %31

10:                                               ; preds = %1
  %11 = getelementptr inbounds nuw i8, ptr %0, i64 72
  %12 = load i32, ptr %11, align 8
  %13 = zext i32 %12 to i64
  call void @ScanKeyInit(ptr noundef nonnull %2, i16 noundef signext 2, i16 noundef zeroext 3, i32 noundef 184, i64 noundef %13) #13
  %14 = call ptr @table_open(i32 noundef 3381, i32 noundef 1) #13
  %15 = call ptr @systable_beginscan(ptr noundef %14, i32 noundef 3379, i1 noundef zeroext true, ptr noundef null, i32 noundef 1, ptr noundef nonnull %2) #13
  %16 = call ptr @systable_getnext(ptr noundef %15) #13
  %.not20 = icmp eq ptr %16, null
  br i1 %.not20, label %._crit_edge, label %.lr.ph

.lr.ph:                                           ; preds = %10, %.lr.ph
  %17 = phi ptr [ %25, %.lr.ph ], [ %16, %10 ]
  %.01821 = phi ptr [ %24, %.lr.ph ], [ null, %10 ]
  %18 = getelementptr i8, ptr %17, i64 16
  %.val = load ptr, ptr %18, align 8
  %19 = getelementptr inbounds nuw i8, ptr %.val, i64 22
  %20 = load i8, ptr %19, align 2
  %21 = zext i8 %20 to i64
  %22 = getelementptr inbounds nuw i8, ptr %.val, i64 %21
  %23 = load i32, ptr %22, align 4
  %24 = call ptr @lappend_oid(ptr noundef %.01821, i32 noundef %23) #13
  %25 = call ptr @systable_getnext(ptr noundef %15) #13
  %.not = icmp eq ptr %25, null
  br i1 %.not, label %._crit_edge, label %.lr.ph, !llvm.loop !39

._crit_edge:                                      ; preds = %.lr.ph, %10
  %.018.lcssa = phi ptr [ null, %10 ], [ %24, %.lr.ph ]
  call void @systable_endscan(ptr noundef %15) #13
  call void @table_close(ptr noundef %14, i32 noundef 1) #13
  call void @list_sort(ptr noundef %.018.lcssa, ptr noundef nonnull @list_oid_cmp) #13
  %26 = load ptr, ptr @CacheMemoryContext, align 8
  %27 = load ptr, ptr @CurrentMemoryContext, align 8
  store ptr %26, ptr @CurrentMemoryContext, align 8
  %28 = getelementptr inbounds nuw i8, ptr %0, i64 240
  %29 = load ptr, ptr %28, align 8
  %30 = call ptr @list_copy(ptr noundef %.018.lcssa) #13
  store ptr %30, ptr %28, align 8
  store i8 1, ptr %3, align 4
  store ptr %27, ptr @CurrentMemoryContext, align 8
  call void @list_free(ptr noundef %29) #13
  br label %31

31:                                               ; preds = %._crit_edge, %6
  %.0 = phi ptr [ %9, %6 ], [ %.018.lcssa, %._crit_edge ]
  call void @llvm.lifetime.end.p0(i64 72, ptr nonnull %2) #13
  ret ptr %.0
}